; Function Attrs: mustprogress nounwind uwtable
define void @_ZN3net20QuicUnackedPacketMapD2Ev(ptr noundef nonnull align 8 dereferenceable(120) %0) unnamed_addr #1 align 2 personality ptr @__gxx_personality_v0 {
  %2 = getelementptr inbounds nuw i8, ptr %0, i64 32
  %3 = load ptr, ptr %2, align 8, !tbaa !16, !noalias !17
  %4 = getelementptr inbounds nuw i8, ptr %0, i64 64
  %5 = load ptr, ptr %4, align 8, !tbaa !16, !noalias !20
  %.not4 = icmp eq ptr %3, %5
  br i1 %.not4, label %._crit_edge, label %.lr.ph.preheader

.lr.ph.preheader:                                 ; preds = %1
  %6 = getelementptr inbounds nuw i8, ptr %0, i64 56
  %7 = load ptr, ptr %6, align 8, !tbaa !23, !noalias !17
  %8 = getelementptr inbounds nuw i8, ptr %0, i64 48
  %9 = load ptr, ptr %8, align 8, !tbaa !24, !noalias !17
  br label %.lr.ph

._crit_edge:                                      ; preds = %_ZNSt15_Deque_iteratorIN3net16TransmissionInfoERS1_PS1_EppEv.exit, %1
  %10 = getelementptr inbounds nuw i8, ptr %0, i64 16
  tail call void @_ZNSt5dequeIN3net16TransmissionInfoESaIS1_EED2Ev(ptr noundef nonnull align 8 dereferenceable(80) %10) #17
  ret void

.lr.ph:                                           ; preds = %.lr.ph.preheader, %_ZNSt15_Deque_iteratorIN3net16TransmissionInfoERS1_PS1_EppEv.exit
  %.sroa.13.07 = phi ptr [ %.sroa.13.1, %_ZNSt15_Deque_iteratorIN3net16TransmissionInfoERS1_PS1_EppEv.exit ], [ %7, %.lr.ph.preheader ]
  %.sroa.10.06 = phi ptr [ %.sroa.10.1, %_ZNSt15_Deque_iteratorIN3net16TransmissionInfoERS1_PS1_EppEv.exit ], [ %9, %.lr.ph.preheader ]
  %.sroa.01.05 = phi ptr [ %.sroa.01.1, %_ZNSt15_Deque_iteratorIN3net16TransmissionInfoERS1_PS1_EppEv.exit ], [ %3, %.lr.ph.preheader ]
  invoke void @_ZN3net9QuicUtils12DeleteFramesEPSt6vectorINS_9QuicFrameESaIS2_EE(ptr noundef %.sroa.01.05)
          to label %11 unwind label %19

11:                                               ; preds = %.lr.ph
  %12 = getelementptr inbounds nuw i8, ptr %.sroa.01.05, i64 80
  %13 = icmp eq ptr %12, %.sroa.10.06
  br i1 %13, label %14, label %_ZNSt15_Deque_iteratorIN3net16TransmissionInfoERS1_PS1_EppEv.exit

14:                                               ; preds = %11
  %15 = getelementptr inbounds nuw i8, ptr %.sroa.13.07, i64 8
  %16 = load ptr, ptr %15, align 8, !tbaa !25
  %17 = getelementptr inbounds nuw i8, ptr %16, i64 480
  br label %_ZNSt15_Deque_iteratorIN3net16TransmissionInfoERS1_PS1_EppEv.exit

_ZNSt15_Deque_iteratorIN3net16TransmissionInfoERS1_PS1_EppEv.exit: ; preds = %11, %14
  %.sroa.01.1 = phi ptr [ %16, %14 ], [ %12, %11 ]
  %.sroa.10.1 = phi ptr [ %17, %14 ], [ %.sroa.10.06, %11 ]
  %.sroa.13.1 = phi ptr [ %15, %14 ], [ %.sroa.13.07, %11 ]
  %18 = load ptr, ptr %4, align 8, !tbaa !16, !noalias !20
  %.not = icmp eq ptr %.sroa.01.1, %18
  br i1 %.not, label %._crit_edge, label %.lr.ph, !llvm.loop !26

19:                                               ; preds = %.lr.ph
  %20 = landingpad { ptr, i32 }
          catch ptr null
  %21 = extractvalue { ptr, i32 } %20, 0
  tail call void @__clang_call_terminate(ptr %21) #18
  unreachable
}